; Function Attrs: nounwind uwtable
define ptr @l_Std_Time_PlainDate_subMonthsClip___boxed(ptr noundef %0, ptr noundef %1) local_unnamed_addr #0 {
  %3 = ptrtoint ptr %1 to i64
  %4 = and i64 %3, 1
  %.not.i5.i = icmp eq i64 %4, 0
  br i1 %.not.i5.i, label %18, label %5, !prof !8

5:                                                ; preds = %2
  %6 = shl i64 %3, 31
  %7 = ashr i64 %6, 32
  %8 = sub nsw i64 0, %7
  %9 = add nsw i64 %7, 2147483647
  %10 = icmp ult i64 %9, 4294967296
  br i1 %10, label %11, label %16, !prof !14

11:                                               ; preds = %5
  %12 = shl nsw i64 %8, 1
  %13 = and i64 %12, 8589934590
  %14 = or disjoint i64 %13, 1
  %15 = inttoptr i64 %14 to ptr
  br label %lean_int_neg.exit.i

16:                                               ; preds = %5
  %17 = tail call ptr @lean_big_int64_to_int(i64 noundef range(i64 -4611686016279904256, 4611686018427387905) %8) #5
  br label %lean_int_neg.exit.i

18:                                               ; preds = %2
  %19 = tail call ptr @lean_int_big_neg(ptr noundef %1) #5
  br label %lean_int_neg.exit.i

lean_int_neg.exit.i:                              ; preds = %18, %16, %11
  %.0.i.i = phi ptr [ %19, %18 ], [ %15, %11 ], [ %17, %16 ]
  %20 = tail call ptr @l_Std_Time_PlainDate_addMonthsClip(ptr noundef %0, ptr noundef %.0.i.i)
  %21 = ptrtoint ptr %.0.i.i to i64
  %22 = and i64 %21, 1
  %.not.i4 = icmp eq i64 %22, 0
  br i1 %.not.i4, label %23, label %l_Std_Time_PlainDate_subMonthsClip.exit

23:                                               ; preds = %lean_int_neg.exit.i
  %24 = load i32, ptr %.0.i.i, align 4, !tbaa !9
  %25 = icmp sgt i32 %24, 1
  br i1 %25, label %26, label %28, !prof !14

26:                                               ; preds = %23
  %27 = add nsw i32 %24, -1
  store i32 %27, ptr %.0.i.i, align 4, !tbaa !9
  br label %l_Std_Time_PlainDate_subMonthsClip.exit

28:                                               ; preds = %23
  %.not.i.i = icmp eq i32 %24, 0
  br i1 %.not.i.i, label %l_Std_Time_PlainDate_subMonthsClip.exit, label %29

29:                                               ; preds = %28
  tail call void @lean_dec_ref_cold(ptr noundef nonnull %.0.i.i) #5
  br label %l_Std_Time_PlainDate_subMonthsClip.exit

l_Std_Time_PlainDate_subMonthsClip.exit:          ; preds = %lean_int_neg.exit.i, %26, %28, %29
  br i1 %.not.i5.i, label %30, label %lean_dec.exit

30:                                               ; preds = %l_Std_Time_PlainDate_subMonthsClip.exit
  %31 = load i32, ptr %1, align 4, !tbaa !9
  %32 = icmp sgt i32 %31, 1
  br i1 %32, label %33, label %35, !prof !14

33:                                               ; preds = %30
  %34 = add nsw i32 %31, -1
  store i32 %34, ptr %1, align 4, !tbaa !9
  br label %lean_dec.exit

35:                                               ; preds = %30
  %.not.i = icmp eq i32 %31, 0
  br i1 %.not.i, label %lean_dec.exit, label %36

36:                                               ; preds = %35
  tail call void @lean_dec_ref_cold(ptr noundef nonnull %1) #5
  br label %lean_dec.exit

lean_dec.exit:                                    ; preds = %36, %35, %33, %l_Std_Time_PlainDate_subMonthsClip.exit
  ret ptr %20
}